target datalayout = "e-m:e-p270:32:32-p271:32:32-p272:64:64-i64:64-i128:128-f80:128-n8:16:32:64-S128"
target triple = "x86_64-pc-linux-gnu"

%struct.mbedtls_pk_info_t = type { i32, ptr, ptr, ptr, ptr, ptr, ptr, ptr, ptr, ptr, ptr, ptr }
%struct.mbedtls_pk_context = type { ptr, ptr }
%struct.mbedtls_mpi = type { ptr, i16, i16 }
%struct.mbedtls_rsa_context = type { i32, i64, %struct.mbedtls_mpi, %struct.mbedtls_mpi, %struct.mbedtls_mpi, %struct.mbedtls_mpi, %struct.mbedtls_mpi, %struct.mbedtls_mpi, %struct.mbedtls_mpi, %struct.mbedtls_mpi, %struct.mbedtls_mpi, %struct.mbedtls_mpi, %struct.mbedtls_mpi, %struct.mbedtls_mpi, %struct.mbedtls_mpi, i32, i32 }

; Function Attrs: nounwind uwtable
define hidden i32 @mbedtls_pk_get_type(ptr noundef %0) #0 {
  %2 = alloca i32, align 4
  %3 = alloca ptr, align 8
  store ptr %0, ptr %3, align 8, !tbaa !3
  %4 = load ptr, ptr %3, align 8, !tbaa !3
  %5 = icmp eq ptr %4, null
  br i1 %5, label %11, label %6

6:                                                ; preds = %1
  %7 = load ptr, ptr %3, align 8, !tbaa !3
  %8 = getelementptr inbounds nuw %struct.mbedtls_pk_context, ptr %7, i32 0, i32 0
  %9 = load ptr, ptr %8, align 8, !tbaa !8
  %10 = icmp eq ptr %9, null
  br i1 %10, label %11, label %12

11:                                               ; preds = %6, %1
  store i32 0, ptr %2, align 4
  br label %18

12:                                               ; preds = %6
  %13 = load ptr, ptr %3, align 8, !tbaa !3
  %14 = getelementptr inbounds nuw %struct.mbedtls_pk_context, ptr %13, i32 0, i32 0
  %15 = load ptr, ptr %14, align 8, !tbaa !8
  %16 = getelementptr inbounds nuw %struct.mbedtls_pk_info_t, ptr %15, i32 0, i32 0
  %17 = load i32, ptr %16, align 8, !tbaa !44
  store i32 %17, ptr %2, align 4
  br label %18

18:                                               ; preds = %12, %11
  %19 = load i32, ptr %2, align 4
  ret i32 %19
}

; Function Attrs: inlinehint nounwind uwtable
define internal zeroext i8 @mbedtls_md_get_size_from_type(i32 noundef %0) #3 {
  %2 = alloca i32, align 4
  store i32 %0, ptr %2, align 4, !tbaa !16
  %3 = load i32, ptr %2, align 4, !tbaa !16
  %4 = call ptr @mbedtls_md_info_from_type(i32 noundef %3)
  %5 = call zeroext i8 @mbedtls_md_get_size(ptr noundef %4)
  ret i8 %5
}

; Function Attrs: nounwind uwtable
define hidden i64 @mbedtls_pk_get_bitlen(ptr noundef %0) #0 {
  %2 = alloca i64, align 8
  %3 = alloca ptr, align 8
  store ptr %0, ptr %3, align 8, !tbaa !3
  %4 = load ptr, ptr %3, align 8, !tbaa !3
  %5 = icmp eq ptr %4, null
  br i1 %5, label %11, label %6

6:                                                ; preds = %1
  %7 = load ptr, ptr %3, align 8, !tbaa !3
  %8 = getelementptr inbounds nuw %struct.mbedtls_pk_context, ptr %7, i32 0, i32 0
  %9 = load ptr, ptr %8, align 8, !tbaa !8
  %10 = icmp eq ptr %9, null
  br i1 %10, label %11, label %12

11:                                               ; preds = %6, %1
  store i64 0, ptr %2, align 8
  br label %20

12:                                               ; preds = %6
  %13 = load ptr, ptr %3, align 8, !tbaa !3
  %14 = getelementptr inbounds nuw %struct.mbedtls_pk_context, ptr %13, i32 0, i32 0
  %15 = load ptr, ptr %14, align 8, !tbaa !8
  %16 = getelementptr inbounds nuw %struct.mbedtls_pk_info_t, ptr %15, i32 0, i32 2
  %17 = load ptr, ptr %16, align 8, !tbaa !50
  %18 = load ptr, ptr %3, align 8, !tbaa !3
  %19 = call i64 %17(ptr noundef %18)
  store i64 %19, ptr %2, align 8
  br label %20

20:                                               ; preds = %12, %11
  %21 = load i64, ptr %2, align 8
  ret i64 %21
}

; Function Attrs: nounwind uwtable
define hidden i32 @mbedtls_pk_sign_restartable(ptr noundef %0, i32 noundef %1, ptr noundef %2, i64 noundef %3, ptr noundef %4, i64 noundef %5, ptr noundef %6, ptr noundef %7, ptr noundef %8, ptr noundef %9) #0 {
  %11 = alloca i32, align 4
  %12 = alloca ptr, align 8
  %13 = alloca i32, align 4
  %14 = alloca ptr, align 8
  %15 = alloca i64, align 8
  %16 = alloca ptr, align 8
  %17 = alloca i64, align 8
  %18 = alloca ptr, align 8
  %19 = alloca ptr, align 8
  %20 = alloca ptr, align 8
  %21 = alloca ptr, align 8
  store ptr %0, ptr %12, align 8, !tbaa !3
  store i32 %1, ptr %13, align 4, !tbaa !16
  store ptr %2, ptr %14, align 8, !tbaa !56
  store i64 %3, ptr %15, align 8, !tbaa !41
  store ptr %4, ptr %16, align 8, !tbaa !56
  store i64 %5, ptr %17, align 8, !tbaa !41
  store ptr %6, ptr %18, align 8, !tbaa !58
  store ptr %7, ptr %19, align 8, !tbaa !19
  store ptr %8, ptr %20, align 8, !tbaa !19
  store ptr %9, ptr %21, align 8, !tbaa !19
  %22 = load i32, ptr %13, align 4, !tbaa !16
  %23 = icmp ne i32 %22, 0
  br i1 %23, label %27, label %24

24:                                               ; preds = %10
  %25 = load i64, ptr %15, align 8, !tbaa !41
  %26 = icmp ne i64 %25, 0
  br i1 %26, label %27, label %31

27:                                               ; preds = %24, %10
  %28 = load ptr, ptr %14, align 8, !tbaa !56
  %29 = icmp eq ptr %28, null
  br i1 %29, label %30, label %31

30:                                               ; preds = %27
  store i32 -16000, ptr %11, align 4
  br label %65

31:                                               ; preds = %27, %24
  %32 = load ptr, ptr %12, align 8, !tbaa !3
  %33 = getelementptr inbounds nuw %struct.mbedtls_pk_context, ptr %32, i32 0, i32 0
  %34 = load ptr, ptr %33, align 8, !tbaa !8
  %35 = icmp eq ptr %34, null
  br i1 %35, label %40, label %36

36:                                               ; preds = %31
  %37 = load i32, ptr %13, align 4, !tbaa !16
  %38 = call i32 @pk_hashlen_helper(i32 noundef %37, ptr noundef %15)
  %39 = icmp ne i32 %38, 0
  br i1 %39, label %40, label %41

40:                                               ; preds = %36, %31
  store i32 -16000, ptr %11, align 4
  br label %65

41:                                               ; preds = %36
  %42 = load ptr, ptr %12, align 8, !tbaa !3
  %43 = getelementptr inbounds nuw %struct.mbedtls_pk_context, ptr %42, i32 0, i32 0
  %44 = load ptr, ptr %43, align 8, !tbaa !8
  %45 = getelementptr inbounds nuw %struct.mbedtls_pk_info_t, ptr %44, i32 0, i32 5
  %46 = load ptr, ptr %45, align 8, !tbaa !64
  %47 = icmp eq ptr %46, null
  br i1 %47, label %48, label %49

48:                                               ; preds = %41
  store i32 -16128, ptr %11, align 4
  br label %65

49:                                               ; preds = %41
  %50 = load ptr, ptr %12, align 8, !tbaa !3
  %51 = getelementptr inbounds nuw %struct.mbedtls_pk_context, ptr %50, i32 0, i32 0
  %52 = load ptr, ptr %51, align 8, !tbaa !8
  %53 = getelementptr inbounds nuw %struct.mbedtls_pk_info_t, ptr %52, i32 0, i32 5
  %54 = load ptr, ptr %53, align 8, !tbaa !64
  %55 = load ptr, ptr %12, align 8, !tbaa !3
  %56 = load i32, ptr %13, align 4, !tbaa !16
  %57 = load ptr, ptr %14, align 8, !tbaa !56
  %58 = load i64, ptr %15, align 8, !tbaa !41
  %59 = load ptr, ptr %16, align 8, !tbaa !56
  %60 = load i64, ptr %17, align 8, !tbaa !41
  %61 = load ptr, ptr %18, align 8, !tbaa !58
  %62 = load ptr, ptr %19, align 8, !tbaa !19
  %63 = load ptr, ptr %20, align 8, !tbaa !19
  %64 = call i32 %54(ptr noundef %55, i32 noundef %56, ptr noundef %57, i64 noundef %58, ptr noundef %59, i64 noundef %60, ptr noundef %61, ptr noundef %62, ptr noundef %63)
  store i32 %64, ptr %11, align 4
  br label %65

65:                                               ; preds = %49, %48, %40, %30
  %66 = load i32, ptr %11, align 4
  ret i32 %66
}

; Function Attrs: inlinehint nounwind uwtable
define internal ptr @mbedtls_pk_rsa(ptr %0, ptr %1) #3 {
  %3 = alloca ptr, align 8
  %4 = alloca %struct.mbedtls_pk_context, align 8
  %5 = getelementptr inbounds nuw { ptr, ptr }, ptr %4, i32 0, i32 0
  store ptr %0, ptr %5, align 8
  %6 = getelementptr inbounds nuw { ptr, ptr }, ptr %4, i32 0, i32 1
  store ptr %1, ptr %6, align 8
  %7 = call i32 @mbedtls_pk_get_type(ptr noundef %4)
  switch i32 %7, label %11 [
    i32 1, label %8
  ]

8:                                                ; preds = %2
  %9 = getelementptr inbounds nuw %struct.mbedtls_pk_context, ptr %4, i32 0, i32 1
  %10 = load ptr, ptr %9, align 8, !tbaa !11
  store ptr %10, ptr %3, align 8
  br label %12

11:                                               ; preds = %2
  store ptr null, ptr %3, align 8
  br label %12

12:                                               ; preds = %11, %8
  %13 = load ptr, ptr %3, align 8
  ret ptr %13
}

; Function Attrs: inlinehint nounwind uwtable
define internal i32 @pk_hashlen_helper(i32 noundef %0, ptr noundef %1) #3 {
  %3 = alloca i32, align 4
  %4 = alloca i32, align 4
  %5 = alloca ptr, align 8
  store i32 %0, ptr %4, align 4, !tbaa !16
  store ptr %1, ptr %5, align 8, !tbaa !58
  %6 = load ptr, ptr %5, align 8, !tbaa !58
  %7 = load i64, ptr %6, align 8, !tbaa !41
  %8 = icmp ne i64 %7, 0
  br i1 %8, label %9, label %10

9:                                                ; preds = %2
  store i32 0, ptr %3, align 4
  br label %20

10:                                               ; preds = %2
  %11 = load i32, ptr %4, align 4, !tbaa !16
  %12 = call zeroext i8 @mbedtls_md_get_size_from_type(i32 noundef %11)
  %13 = zext i8 %12 to i64
  %14 = load ptr, ptr %5, align 8, !tbaa !58
  store i64 %13, ptr %14, align 8, !tbaa !41
  %15 = load ptr, ptr %5, align 8, !tbaa !58
  %16 = load i64, ptr %15, align 8, !tbaa !41
  %17 = icmp eq i64 %16, 0
  br i1 %17, label %18, label %19

18:                                               ; preds = %10
  store i32 -1, ptr %3, align 4
  br label %20

19:                                               ; preds = %10
  store i32 0, ptr %3, align 4
  br label %20

20:                                               ; preds = %19, %18, %9
  %21 = load i32, ptr %3, align 4
  ret i32 %21
}

; Function Attrs: inlinehint nounwind uwtable
define internal i64 @mbedtls_pk_get_len(ptr noundef %0) #3 {
  %2 = alloca ptr, align 8
  store ptr %0, ptr %2, align 8, !tbaa !3
  %3 = load ptr, ptr %2, align 8, !tbaa !3
  %4 = call i64 @mbedtls_pk_get_bitlen(ptr noundef %3)
  %5 = add i64 %4, 7
  %6 = udiv i64 %5, 8
  ret i64 %6
}

; Function Attrs: nounwind uwtable
define hidden i32 @mbedtls_pk_sign(ptr noundef %0, i32 noundef %1, ptr noundef %2, i64 noundef %3, ptr noundef %4, i64 noundef %5, ptr noundef %6, ptr noundef %7, ptr noundef %8) #0 {
  %10 = alloca ptr, align 8
  %11 = alloca i32, align 4
  %12 = alloca ptr, align 8
  %13 = alloca i64, align 8
  %14 = alloca ptr, align 8
  %15 = alloca i64, align 8
  %16 = alloca ptr, align 8
  %17 = alloca ptr, align 8
  %18 = alloca ptr, align 8
  store ptr %0, ptr %10, align 8, !tbaa !3
  store i32 %1, ptr %11, align 4, !tbaa !16
  store ptr %2, ptr %12, align 8, !tbaa !56
  store i64 %3, ptr %13, align 8, !tbaa !41
  store ptr %4, ptr %14, align 8, !tbaa !56
  store i64 %5, ptr %15, align 8, !tbaa !41
  store ptr %6, ptr %16, align 8, !tbaa !58
  store ptr %7, ptr %17, align 8, !tbaa !19
  store ptr %8, ptr %18, align 8, !tbaa !19
  %19 = load ptr, ptr %10, align 8, !tbaa !3
  %20 = load i32, ptr %11, align 4, !tbaa !16
  %21 = load ptr, ptr %12, align 8, !tbaa !56
  %22 = load i64, ptr %13, align 8, !tbaa !41
  %23 = load ptr, ptr %14, align 8, !tbaa !56
  %24 = load i64, ptr %15, align 8, !tbaa !41
  %25 = load ptr, ptr %16, align 8, !tbaa !58
  %26 = load ptr, ptr %17, align 8, !tbaa !19
  %27 = load ptr, ptr %18, align 8, !tbaa !19
  %28 = call i32 @mbedtls_pk_sign_restartable(ptr noundef %19, i32 noundef %20, ptr noundef %21, i64 noundef %22, ptr noundef %23, i64 noundef %24, ptr noundef %25, ptr noundef %26, ptr noundef %27, ptr noundef null)
  ret i32 %28
}

; Function Attrs: nounwind uwtable
define hidden i32 @mbedtls_pk_can_do(ptr noundef %0, i32 noundef %1) #0 {
  %3 = alloca i32, align 4
  %4 = alloca ptr, align 8
  %5 = alloca i32, align 4
  store ptr %0, ptr %4, align 8, !tbaa !3
  store i32 %1, ptr %5, align 4, !tbaa !16
  %6 = load ptr, ptr %4, align 8, !tbaa !3
  %7 = icmp eq ptr %6, null
  br i1 %7, label %13, label %8

8:                                                ; preds = %2
  %9 = load ptr, ptr %4, align 8, !tbaa !3
  %10 = getelementptr inbounds nuw %struct.mbedtls_pk_context, ptr %9, i32 0, i32 0
  %11 = load ptr, ptr %10, align 8, !tbaa !8
  %12 = icmp eq ptr %11, null
  br i1 %12, label %13, label %14

13:                                               ; preds = %8, %2
  store i32 0, ptr %3, align 4
  br label %22

14:                                               ; preds = %8
  %15 = load ptr, ptr %4, align 8, !tbaa !3
  %16 = getelementptr inbounds nuw %struct.mbedtls_pk_context, ptr %15, i32 0, i32 0
  %17 = load ptr, ptr %16, align 8, !tbaa !8
  %18 = getelementptr inbounds nuw %struct.mbedtls_pk_info_t, ptr %17, i32 0, i32 3
  %19 = load ptr, ptr %18, align 8, !tbaa !25
  %20 = load i32, ptr %5, align 4, !tbaa !16
  %21 = call i32 %19(i32 noundef %20)
  store i32 %21, ptr %3, align 4
  br label %22

22:                                               ; preds = %14, %13
  %23 = load i32, ptr %3, align 4
  ret i32 %23
}

; Function Attrs: nounwind uwtable
define hidden i32 @mbedtls_pk_sign_ext(i32 noundef %0, ptr noundef %1, i32 noundef %2, ptr noundef %3, i64 noundef %4, ptr noundef %5, i64 noundef %6, ptr noundef %7, ptr noundef %8, ptr noundef %9) #0 {
  %11 = alloca i32, align 4
  %12 = alloca i32, align 4
  %13 = alloca ptr, align 8
  %14 = alloca i32, align 4
  %15 = alloca ptr, align 8
  %16 = alloca i64, align 8
  %17 = alloca ptr, align 8
  %18 = alloca i64, align 8
  %19 = alloca ptr, align 8
  %20 = alloca ptr, align 8
  %21 = alloca ptr, align 8
  %22 = alloca ptr, align 8
  %23 = alloca i32, align 4
  store i32 %0, ptr %12, align 4, !tbaa !16
  store ptr %1, ptr %13, align 8, !tbaa !3
  store i32 %2, ptr %14, align 4, !tbaa !16
  store ptr %3, ptr %15, align 8, !tbaa !56
  store i64 %4, ptr %16, align 8, !tbaa !41
  store ptr %5, ptr %17, align 8, !tbaa !56
  store i64 %6, ptr %18, align 8, !tbaa !41
  store ptr %7, ptr %19, align 8, !tbaa !58
  store ptr %8, ptr %20, align 8, !tbaa !19
  store ptr %9, ptr %21, align 8, !tbaa !19
  %24 = load ptr, ptr %13, align 8, !tbaa !3
  %25 = getelementptr inbounds nuw %struct.mbedtls_pk_context, ptr %24, i32 0, i32 0
  %26 = load ptr, ptr %25, align 8, !tbaa !8
  %27 = icmp eq ptr %26, null
  br i1 %27, label %28, label %29

28:                                               ; preds = %10
  store i32 -16000, ptr %11, align 4
  br label %85

29:                                               ; preds = %10
  %30 = load ptr, ptr %13, align 8, !tbaa !3
  %31 = load i32, ptr %12, align 4, !tbaa !16
  %32 = call i32 @mbedtls_pk_can_do(ptr noundef %30, i32 noundef %31)
  %33 = icmp ne i32 %32, 0
  br i1 %33, label %35, label %34

34:                                               ; preds = %29
  store i32 -16128, ptr %11, align 4
  br label %85

35:                                               ; preds = %29
  %36 = load i32, ptr %12, align 4, !tbaa !16
  %37 = icmp ne i32 %36, 6
  br i1 %37, label %38, label %49

38:                                               ; preds = %35
  %39 = load ptr, ptr %13, align 8, !tbaa !3
  %40 = load i32, ptr %14, align 4, !tbaa !16
  %41 = load ptr, ptr %15, align 8, !tbaa !56
  %42 = load i64, ptr %16, align 8, !tbaa !41
  %43 = load ptr, ptr %17, align 8, !tbaa !56
  %44 = load i64, ptr %18, align 8, !tbaa !41
  %45 = load ptr, ptr %19, align 8, !tbaa !58
  %46 = load ptr, ptr %20, align 8, !tbaa !19
  %47 = load ptr, ptr %21, align 8, !tbaa !19
  %48 = call i32 @mbedtls_pk_sign(ptr noundef %39, i32 noundef %40, ptr noundef %41, i64 noundef %42, ptr noundef %43, i64 noundef %44, ptr noundef %45, ptr noundef %46, ptr noundef %47)
  store i32 %48, ptr %11, align 4
  br label %85

49:                                               ; preds = %35
  %50 = load i64, ptr %18, align 8, !tbaa !41
  %51 = load ptr, ptr %13, align 8, !tbaa !3
  %52 = call i64 @mbedtls_pk_get_len(ptr noundef %51)
  %53 = icmp ult i64 %50, %52
  br i1 %53, label %54, label %55

54:                                               ; preds = %49
  store i32 -14464, ptr %11, align 4
  br label %85

55:                                               ; preds = %49
  %56 = load i32, ptr %14, align 4, !tbaa !16
  %57 = call i32 @pk_hashlen_helper(i32 noundef %56, ptr noundef %16)
  %58 = icmp ne i32 %57, 0
  br i1 %58, label %59, label %60

59:                                               ; preds = %55
  store i32 -16000, ptr %11, align 4
  br label %85

60:                                               ; preds = %55
  call void @llvm.lifetime.start.p0(i64 8, ptr %22) #5
  %61 = load ptr, ptr %13, align 8, !tbaa !3
  %62 = getelementptr inbounds nuw { ptr, ptr }, ptr %61, i32 0, i32 0
  %63 = load ptr, ptr %62, align 8
  %64 = getelementptr inbounds nuw { ptr, ptr }, ptr %61, i32 0, i32 1
  %65 = load ptr, ptr %64, align 8
  %66 = call ptr @mbedtls_pk_rsa(ptr %63, ptr %65)
  store ptr %66, ptr %22, align 8, !tbaa !28
  call void @llvm.lifetime.start.p0(i64 4, ptr %23) #5
  %67 = load ptr, ptr %22, align 8, !tbaa !28
  %68 = load ptr, ptr %20, align 8, !tbaa !19
  %69 = load ptr, ptr %21, align 8, !tbaa !19
  %70 = load i32, ptr %14, align 4, !tbaa !16
  %71 = load i64, ptr %16, align 8, !tbaa !41
  %72 = trunc i64 %71 to i32
  %73 = load ptr, ptr %15, align 8, !tbaa !56
  %74 = load ptr, ptr %17, align 8, !tbaa !56
  %75 = call i32 @mbedtls_rsa_rsassa_pss_sign_no_mode_check(ptr noundef %67, ptr noundef %68, ptr noundef %69, i32 noundef %70, i32 noundef %72, ptr noundef %73, ptr noundef %74)
  store i32 %75, ptr %23, align 4, !tbaa !16
  %76 = load i32, ptr %23, align 4, !tbaa !16
  %77 = icmp eq i32 %76, 0
  br i1 %77, label %78, label %83

78:                                               ; preds = %60
  %79 = load ptr, ptr %22, align 8, !tbaa !28
  %80 = getelementptr inbounds nuw %struct.mbedtls_rsa_context, ptr %79, i32 0, i32 1
  %81 = load i64, ptr %80, align 8, !tbaa !65
  %82 = load ptr, ptr %19, align 8, !tbaa !58
  store i64 %81, ptr %82, align 8, !tbaa !41
  br label %83

83:                                               ; preds = %78, %60
  %84 = load i32, ptr %23, align 4, !tbaa !16
  store i32 %84, ptr %11, align 4
  call void @llvm.lifetime.end.p0(i64 4, ptr %23) #5
  call void @llvm.lifetime.end.p0(i64 8, ptr %22) #5
  br label %85

85:                                               ; preds = %83, %59, %54, %38, %34, %28
  %86 = load i32, ptr %11, align 4
  ret i32 %86
}