; Function Attrs: nounwind uwtable
define hidden i32 @mbedtls_pk_sign_ext(i32 noundef %0, ptr noundef %1, i32 noundef %2, ptr noundef %3, i64 noundef %4, ptr noundef %5, i64 noundef %6, ptr noundef %7, ptr noundef %8, ptr noundef %9) local_unnamed_addr #1 {
  %11 = load ptr, ptr %1, align 8, !tbaa !3
  %12 = icmp eq ptr %11, null
  br i1 %12, label %mbedtls_pk_sign.exit, label %mbedtls_pk_can_do.exit

mbedtls_pk_can_do.exit:                           ; preds = %10
  %13 = getelementptr inbounds nuw i8, ptr %11, i64 24
  %14 = load ptr, ptr %13, align 8, !tbaa !20
  %15 = tail call i32 %14(i32 noundef %0) #7
  %.not = icmp eq i32 %15, 0
  br i1 %.not, label %mbedtls_pk_sign.exit, label %16

16:                                               ; preds = %mbedtls_pk_can_do.exit
  %.not26 = icmp eq i32 %0, 6
  br i1 %.not26, label %34, label %17

17:                                               ; preds = %16
  %18 = icmp ne i32 %2, 0
  %19 = icmp ne i64 %4, 0
  %or.cond.i.i = or i1 %18, %19
  %20 = icmp eq ptr %3, null
  %or.cond3.i.i = and i1 %20, %or.cond.i.i
  br i1 %or.cond3.i.i, label %mbedtls_pk_sign.exit, label %21

21:                                               ; preds = %17
  %22 = load ptr, ptr %1, align 8, !tbaa !3
  %23 = icmp eq ptr %22, null
  br i1 %23, label %mbedtls_pk_sign.exit, label %24

24:                                               ; preds = %21
  %.not.i.i.i = icmp eq i64 %4, 0
  br i1 %.not.i.i.i, label %pk_hashlen_helper.exit.i.i, label %pk_hashlen_helper.exit.thread.i.i

pk_hashlen_helper.exit.i.i:                       ; preds = %24
  %25 = tail call ptr @mbedtls_md_info_from_type(i32 noundef %2) #7
  %26 = tail call zeroext i8 @mbedtls_md_get_size(ptr noundef %25) #7
  %.not.i.i = icmp eq i8 %26, 0
  br i1 %.not.i.i, label %mbedtls_pk_sign.exit, label %pk_hashlen_helper.exit.pk_hashlen_helper.exit.thread_crit_edge.i.i

pk_hashlen_helper.exit.pk_hashlen_helper.exit.thread_crit_edge.i.i: ; preds = %pk_hashlen_helper.exit.i.i
  %27 = zext i8 %26 to i64
  %.pre.i.i = load ptr, ptr %1, align 8, !tbaa !3
  br label %pk_hashlen_helper.exit.thread.i.i

pk_hashlen_helper.exit.thread.i.i:                ; preds = %pk_hashlen_helper.exit.pk_hashlen_helper.exit.thread_crit_edge.i.i, %24
  %28 = phi ptr [ %.pre.i.i, %pk_hashlen_helper.exit.pk_hashlen_helper.exit.thread_crit_edge.i.i ], [ %22, %24 ]
  %.01923.i.i = phi i64 [ %27, %pk_hashlen_helper.exit.pk_hashlen_helper.exit.thread_crit_edge.i.i ], [ %4, %24 ]
  %29 = getelementptr inbounds nuw i8, ptr %28, i64 40
  %30 = load ptr, ptr %29, align 8, !tbaa !47
  %31 = icmp eq ptr %30, null
  br i1 %31, label %mbedtls_pk_sign.exit, label %32

32:                                               ; preds = %pk_hashlen_helper.exit.thread.i.i
  %33 = tail call i32 %30(ptr noundef nonnull %1, i32 noundef %2, ptr noundef %3, i64 noundef %.01923.i.i, ptr noundef %5, i64 noundef %6, ptr noundef %7, ptr noundef %8, ptr noundef %9) #7
  br label %mbedtls_pk_sign.exit

34:                                               ; preds = %16
  %35 = load ptr, ptr %1, align 8, !tbaa !3
  %36 = icmp eq ptr %35, null
  br i1 %36, label %mbedtls_pk_get_len.exit.thread, label %mbedtls_pk_get_len.exit

mbedtls_pk_get_len.exit:                          ; preds = %34
  %37 = getelementptr inbounds nuw i8, ptr %35, i64 16
  %38 = load ptr, ptr %37, align 8, !tbaa !26
  %39 = tail call i64 %38(ptr noundef nonnull %1) #7
  %40 = add i64 %39, 7
  %41 = lshr i64 %40, 3
  %42 = icmp ult i64 %6, %41
  br i1 %42, label %mbedtls_pk_sign.exit, label %mbedtls_pk_get_len.exit.thread

mbedtls_pk_get_len.exit.thread:                   ; preds = %34, %mbedtls_pk_get_len.exit
  %.not.i = icmp eq i64 %4, 0
  br i1 %.not.i, label %pk_hashlen_helper.exit, label %pk_hashlen_helper.exit.thread

pk_hashlen_helper.exit:                           ; preds = %mbedtls_pk_get_len.exit.thread
  %43 = tail call ptr @mbedtls_md_info_from_type(i32 noundef %2) #7
  %44 = tail call zeroext i8 @mbedtls_md_get_size(ptr noundef %43) #7
  %45 = zext i8 %44 to i64
  %.not38 = icmp eq i8 %44, 0
  br i1 %.not38, label %mbedtls_pk_sign.exit, label %pk_hashlen_helper.exit.thread

pk_hashlen_helper.exit.thread:                    ; preds = %mbedtls_pk_get_len.exit.thread, %pk_hashlen_helper.exit
  %.03237 = phi i64 [ %45, %pk_hashlen_helper.exit ], [ %4, %mbedtls_pk_get_len.exit.thread ]
  %46 = load ptr, ptr %1, align 8
  %47 = icmp eq ptr %46, null
  br i1 %47, label %mbedtls_pk_rsa.exit, label %mbedtls_pk_get_type.exit.i

mbedtls_pk_get_type.exit.i:                       ; preds = %pk_hashlen_helper.exit.thread
  %48 = getelementptr inbounds nuw i8, ptr %1, i64 8
  %49 = load ptr, ptr %48, align 8
  %50 = load i32, ptr %46, align 8, !tbaa !21
  %.fr.i = freeze i32 %50
  %cond.i = icmp eq i32 %.fr.i, 1
  %spec.select.i = select i1 %cond.i, ptr %49, ptr null
  br label %mbedtls_pk_rsa.exit

mbedtls_pk_rsa.exit:                              ; preds = %pk_hashlen_helper.exit.thread, %mbedtls_pk_get_type.exit.i
  %51 = phi ptr [ null, %pk_hashlen_helper.exit.thread ], [ %spec.select.i, %mbedtls_pk_get_type.exit.i ]
  %52 = trunc i64 %.03237 to i32
  %53 = tail call i32 @mbedtls_rsa_rsassa_pss_sign_no_mode_check(ptr noundef %51, ptr noundef %8, ptr noundef %9, i32 noundef %2, i32 noundef %52, ptr noundef %3, ptr noundef %5) #7
  %54 = icmp eq i32 %53, 0
  br i1 %54, label %55, label %mbedtls_pk_sign.exit

55:                                               ; preds = %mbedtls_pk_rsa.exit
  %56 = getelementptr inbounds nuw i8, ptr %51, i64 8
  %57 = load i64, ptr %56, align 8, !tbaa !48
  store i64 %57, ptr %7, align 8, !tbaa !37
  br label %mbedtls_pk_sign.exit

mbedtls_pk_sign.exit:                             ; preds = %32, %pk_hashlen_helper.exit.thread.i.i, %pk_hashlen_helper.exit.i.i, %21, %17, %mbedtls_pk_rsa.exit, %55, %pk_hashlen_helper.exit, %mbedtls_pk_get_len.exit, %mbedtls_pk_can_do.exit, %10
  %.0 = phi i32 [ -16000, %10 ], [ -16128, %mbedtls_pk_can_do.exit ], [ -14464, %mbedtls_pk_get_len.exit ], [ -16000, %pk_hashlen_helper.exit ], [ 0, %55 ], [ %53, %mbedtls_pk_rsa.exit ], [ %33, %32 ], [ -16000, %17 ], [ -16000, %pk_hashlen_helper.exit.i.i ], [ -16000, %21 ], [ -16128, %pk_hashlen_helper.exit.thread.i.i ]
  ret i32 %.0
}